; Function Attrs: inlinehint nounwind uwtable
define internal fastcc void @flush_put_bits(ptr noundef nonnull captures(none) %0) unnamed_addr #5 {
  %2 = getelementptr inbounds nuw i8, ptr %0, i64 4
  %3 = load i32, ptr %2, align 4, !tbaa !54
  %4 = icmp slt i32 %3, 32
  br i1 %4, label %.lr.ph, label %._crit_edge

.lr.ph:                                           ; preds = %1
  %5 = load i32, ptr %0, align 8, !tbaa !55
  %6 = shl i32 %5, %3
  store i32 %6, ptr %0, align 8, !tbaa !55
  %7 = getelementptr inbounds nuw i8, ptr %0, i64 16
  %8 = getelementptr inbounds nuw i8, ptr %0, i64 24
  br label %9

9:                                                ; preds = %.lr.ph, %14
  %10 = load ptr, ptr %7, align 8, !tbaa !53
  %11 = load ptr, ptr %8, align 8, !tbaa !52
  %12 = icmp ult ptr %10, %11
  br i1 %12, label %14, label %13

13:                                               ; preds = %9
  tail call void (ptr, i32, ptr, ...) @av_log(ptr noundef null, i32 noundef 0, ptr noundef nonnull @.str.10, ptr noundef nonnull @.str.11, ptr noundef nonnull @.str.12, i32 noundef 150) #8
  tail call void @abort() #9
  unreachable

14:                                               ; preds = %9
  %15 = load i32, ptr %0, align 8, !tbaa !55
  %16 = lshr i32 %15, 24
  %17 = trunc nuw i32 %16 to i8
  %18 = getelementptr inbounds nuw i8, ptr %10, i64 1
  store ptr %18, ptr %7, align 8, !tbaa !53
  store i8 %17, ptr %10, align 1, !tbaa !46
  %19 = load i32, ptr %0, align 8, !tbaa !55
  %20 = shl i32 %19, 8
  store i32 %20, ptr %0, align 8, !tbaa !55
  %21 = load i32, ptr %2, align 4, !tbaa !54
  %22 = add nsw i32 %21, 8
  store i32 %22, ptr %2, align 4, !tbaa !54
  %23 = icmp slt i32 %21, 24
  br i1 %23, label %9, label %._crit_edge, !llvm.loop !59

._crit_edge:                                      ; preds = %14, %1
  store i32 32, ptr %2, align 4, !tbaa !54
  store i32 0, ptr %0, align 8, !tbaa !55
  ret void
}